
CDC.elf:     file format elf32-avr

Sections:
Idx Name          Size      VMA       LMA       File off  Algn
  0 .text         000007ec  00000000  00000000  000000b4  2**1
                  CONTENTS, ALLOC, LOAD, READONLY, CODE
  1 .data         00000002  00800060  000007ec  000008a0  2**0
                  CONTENTS, ALLOC, LOAD, DATA
  2 .bss          00000054  00800062  00800062  000008a2  2**0
                  ALLOC
  3 .eeprom       00000080  00810000  00810000  000008a2  2**0
                  CONTENTS, ALLOC, LOAD, DATA
  4 .comment      00000011  00000000  00000000  00000922  2**0
                  CONTENTS, READONLY
  5 .note.gnu.avr.deviceinfo 00000040  00000000  00000000  00000934  2**2
                  CONTENTS, READONLY

Disassembly of section .text:

00000000 <__vectors>:
   0:	57 c0       	rjmp	.+174    	; 0xb0 <__ctors_end>
   2:	89 c0       	rjmp	.+274    	; 0x116 <__vector_1>
   4:	6e c0       	rjmp	.+220    	; 0xe2 <__bad_interrupt>
   6:	6d c0       	rjmp	.+218    	; 0xe2 <__bad_interrupt>
   8:	6c c0       	rjmp	.+216    	; 0xe2 <__bad_interrupt>
   a:	6b c0       	rjmp	.+214    	; 0xe2 <__bad_interrupt>
   c:	6a c0       	rjmp	.+212    	; 0xe2 <__bad_interrupt>
   e:	69 c0       	rjmp	.+210    	; 0xe2 <__bad_interrupt>
  10:	68 c0       	rjmp	.+208    	; 0xe2 <__bad_interrupt>
  12:	67 c0       	rjmp	.+206    	; 0xe2 <__bad_interrupt>
  14:	66 c0       	rjmp	.+204    	; 0xe2 <__bad_interrupt>
  16:	65 c0       	rjmp	.+202    	; 0xe2 <__bad_interrupt>
  18:	64 c0       	rjmp	.+200    	; 0xe2 <__bad_interrupt>
  1a:	63 c0       	rjmp	.+198    	; 0xe2 <__bad_interrupt>
  1c:	62 c0       	rjmp	.+196    	; 0xe2 <__bad_interrupt>
  1e:	61 c0       	rjmp	.+194    	; 0xe2 <__bad_interrupt>
  20:	60 c0       	rjmp	.+192    	; 0xe2 <__bad_interrupt>
  22:	5f c0       	rjmp	.+190    	; 0xe2 <__bad_interrupt>
  24:	5e c0       	rjmp	.+188    	; 0xe2 <__bad_interrupt>

00000026 <__trampolines_end>:
  26:	12 01       	movw	r2, r4
  28:	10 01       	movw	r2, r0
  2a:	02 00       	.word	0x0002	; ????
  2c:	00 08       	sbc	r0, r0
  2e:	c0 16       	cp	r12, r16
  30:	e1 05       	cpc	r30, r1
  32:	00 01       	movw	r0, r0
  34:	01 02       	muls	r16, r17
  36:	00 01       	movw	r0, r0

00000038 <usbDescriptorStringDevice>:
  38:	10 03 55 00 53 00 42 00 2d 00 32 00 33 00 32 00     ..U.S.B.-.2.3.2.

00000048 <usbDescriptorStringVendor>:
  48:	20 03 52 00 61 00 64 00 69 00 6e 00 61 00 72 00      .R.a.d.i.n.a.r.
  58:	61 00 64 00 69 00 6f 00 6e 00 69 00 63 00 61 00     a.d.i.o.n.i.c.a.

00000068 <usbDescriptorString0>:
  68:	04 03 09 04                                         ....

0000006c <configDescrCDC>:
  6c:	09 02 43 00 02 01 00 80 32 09 04 00 00 01 02 02     ..C.....2.......
  7c:	01 00 05 24 00 10 01 04 24 02 02 05 24 06 00 01     ...$....$...$...
  8c:	05 24 01 03 01 07 05 83 03 08 00 ff 09 04 01 00     .$..............
  9c:	02 0a 00 00 00 07 05 01 02 08 00 00 07 05 81 02     ................
  ac:	08 00 00 00                                         ....

000000b0 <__ctors_end>:
  b0:	11 24       	eor	r1, r1
  b2:	1f be       	out	0x3f, r1	; 63
  b4:	cf ed       	ldi	r28, 0xDF	; 223
  b6:	cd bf       	out	0x3d, r28	; 61

000000b8 <__do_copy_data>:
  b8:	10 e0       	ldi	r17, 0x00	; 0
  ba:	a0 e6       	ldi	r26, 0x60	; 96
  bc:	b0 e0       	ldi	r27, 0x00	; 0
  be:	ec ee       	ldi	r30, 0xEC	; 236
  c0:	f7 e0       	ldi	r31, 0x07	; 7
  c2:	02 c0       	rjmp	.+4      	; 0xc8 <__do_copy_data+0x10>
  c4:	05 90       	lpm	r0, Z+
  c6:	0d 92       	st	X+, r0
  c8:	a2 36       	cpi	r26, 0x62	; 98
  ca:	b1 07       	cpc	r27, r17
  cc:	d9 f7       	brne	.-10     	; 0xc4 <__do_copy_data+0xc>

000000ce <__do_clear_bss>:
  ce:	20 e0       	ldi	r18, 0x00	; 0
  d0:	a2 e6       	ldi	r26, 0x62	; 98
  d2:	b0 e0       	ldi	r27, 0x00	; 0
  d4:	01 c0       	rjmp	.+2      	; 0xd8 <.do_clear_bss_start>

000000d6 <.do_clear_bss_loop>:
  d6:	1d 92       	st	X+, r1

000000d8 <.do_clear_bss_start>:
  d8:	a6 3b       	cpi	r26, 0xB6	; 182
  da:	b2 07       	cpc	r27, r18
  dc:	e1 f7       	brne	.-8      	; 0xd6 <.do_clear_bss_loop>
  de:	32 d3       	rcall	.+1636   	; 0x744 <main>
  e0:	83 c3       	rjmp	.+1798   	; 0x7e8 <_exit>

000000e2 <__bad_interrupt>:
  e2:	8e cf       	rjmp	.-228    	; 0x0 <__vectors>

000000e4 <usbCrc16>:
  e4:	a8 2f       	mov	r26, r24
  e6:	b9 2f       	mov	r27, r25
  e8:	80 e0       	ldi	r24, 0x00	; 0
  ea:	90 e0       	ldi	r25, 0x00	; 0
  ec:	41 e0       	ldi	r20, 0x01	; 1
  ee:	50 ea       	ldi	r21, 0xA0	; 160
  f0:	60 95       	com	r22
  f2:	30 e0       	ldi	r19, 0x00	; 0
  f4:	09 c0       	rjmp	.+18     	; 0x108 <usbCrcLoopEntry>

000000f6 <usbCrcByteLoop>:
  f6:	2d 91       	ld	r18, X+
  f8:	82 27       	eor	r24, r18

000000fa <usbCrcBitLoop>:
  fa:	97 95       	ror	r25
  fc:	87 95       	ror	r24
  fe:	10 f0       	brcs	.+4      	; 0x104 <usbCrcNoXor>
 100:	84 27       	eor	r24, r20
 102:	95 27       	eor	r25, r21

00000104 <usbCrcNoXor>:
 104:	30 5e       	subi	r19, 0xE0	; 224
 106:	c8 f3       	brcs	.-14     	; 0xfa <usbCrcBitLoop>

00000108 <usbCrcLoopEntry>:
 108:	6f 5f       	subi	r22, 0xFF	; 255
 10a:	a8 f3       	brcs	.-22     	; 0xf6 <usbCrcByteLoop>

0000010c <usbCrcReady>:
 10c:	08 95       	ret

0000010e <usbCrc16Append>:
 10e:	ea df       	rcall	.-44     	; 0xe4 <usbCrc16>
 110:	8d 93       	st	X+, r24
 112:	9d 93       	st	X+, r25
 114:	08 95       	ret

00000116 <__vector_1>:
 116:	cf 93       	push	r28
 118:	cf b7       	in	r28, 0x3f	; 63
 11a:	cf 93       	push	r28

0000011c <waitForJ>:
 11c:	c3 95       	inc	r28
 11e:	83 9b       	sbis	0x10, 3	; 16
 120:	e9 f7       	brne	.-6      	; 0x11c <waitForJ>

00000122 <waitForK>:
 122:	83 9b       	sbis	0x10, 3	; 16
 124:	09 c0       	rjmp	.+18     	; 0x138 <foundK>
 126:	83 9b       	sbis	0x10, 3	; 16
 128:	07 c0       	rjmp	.+14     	; 0x138 <foundK>
 12a:	83 9b       	sbis	0x10, 3	; 16
 12c:	05 c0       	rjmp	.+10     	; 0x138 <foundK>
 12e:	83 9b       	sbis	0x10, 3	; 16
 130:	03 c0       	rjmp	.+6      	; 0x138 <foundK>
 132:	83 9b       	sbis	0x10, 3	; 16
 134:	01 c0       	rjmp	.+2      	; 0x138 <foundK>
 136:	a6 c0       	rjmp	.+332    	; 0x284 <sofError>

00000138 <foundK>:
 138:	df 93       	push	r29
 13a:	c0 91 8d 00 	lds	r28, 0x008D
 13e:	dd 27       	eor	r29, r29
 140:	cc 56       	subi	r28, 0x6C	; 108
 142:	df 4f       	sbci	r29, 0xFF	; 255
 144:	83 9b       	sbis	0x10, 3	; 16
 146:	02 c0       	rjmp	.+4      	; 0x14c <haveTwoBitsK>
 148:	df 91       	pop	r29
 14a:	eb cf       	rjmp	.-42     	; 0x122 <waitForK>

0000014c <haveTwoBitsK>:
 14c:	2f 93       	push	r18
 14e:	0f 93       	push	r16
 150:	1f 93       	push	r17
 152:	00 b3       	in	r16, 0x10	; 16
 154:	2f ef       	ldi	r18, 0xFF	; 255
 156:	03 fb       	bst	r16, 3
 158:	20 f9       	bld	r18, 0
 15a:	4f 93       	push	r20
 15c:	3f 93       	push	r19
 15e:	10 b3       	in	r17, 0x10	; 16
 160:	4f ef       	ldi	r20, 0xFF	; 255
 162:	01 27       	eor	r16, r17
 164:	03 fb       	bst	r16, 3
 166:	21 f9       	bld	r18, 1
 168:	3b e0       	ldi	r19, 0x0B	; 11
 16a:	31 c0       	rjmp	.+98     	; 0x1ce <rxbit2>

0000016c <unstuff0>:
 16c:	4e 7f       	andi	r20, 0xFE	; 254
 16e:	01 2f       	mov	r16, r17
 170:	10 b3       	in	r17, 0x10	; 16
 172:	21 60       	ori	r18, 0x01	; 1
 174:	28 c0       	rjmp	.+80     	; 0x1c6 <didUnstuff0>

00000176 <unstuff1>:
 176:	10 2f       	mov	r17, r16
 178:	4d 7f       	andi	r20, 0xFD	; 253
 17a:	22 60       	ori	r18, 0x02	; 2
 17c:	00 00       	nop
 17e:	00 b3       	in	r16, 0x10	; 16
 180:	29 c0       	rjmp	.+82     	; 0x1d4 <didUnstuff1>

00000182 <unstuff2>:
 182:	4b 7f       	andi	r20, 0xFB	; 251
 184:	24 60       	ori	r18, 0x04	; 4
 186:	01 2f       	mov	r16, r17
 188:	00 00       	nop
 18a:	10 b3       	in	r17, 0x10	; 16
 18c:	2b c0       	rjmp	.+86     	; 0x1e4 <didUnstuff2>

0000018e <unstuff3>:
 18e:	10 b3       	in	r17, 0x10	; 16
 190:	47 7f       	andi	r20, 0xF7	; 247
 192:	28 60       	ori	r18, 0x08	; 8
 194:	2a c0       	rjmp	.+84     	; 0x1ea <didUnstuff3>

00000196 <unstuff4>:
 196:	4f 7e       	andi	r20, 0xEF	; 239
 198:	00 b3       	in	r16, 0x10	; 16
 19a:	20 61       	ori	r18, 0x10	; 16
 19c:	2c c0       	rjmp	.+88     	; 0x1f6 <didUnstuff4>

0000019e <unstuff5>:
 19e:	4f 7d       	andi	r20, 0xDF	; 223
 1a0:	10 b3       	in	r17, 0x10	; 16
 1a2:	20 62       	ori	r18, 0x20	; 32
 1a4:	2f c0       	rjmp	.+94     	; 0x204 <didUnstuff5>

000001a6 <unstuff6>:
 1a6:	4f 7b       	andi	r20, 0xBF	; 191
 1a8:	00 b3       	in	r16, 0x10	; 16
 1aa:	20 64       	ori	r18, 0x40	; 64
 1ac:	32 c0       	rjmp	.+100    	; 0x212 <didUnstuff6>

000001ae <rxLoop>:
 1ae:	42 27       	eor	r20, r18
 1b0:	00 b3       	in	r16, 0x10	; 16
 1b2:	49 93       	st	Y+, r20
 1b4:	4f ef       	ldi	r20, 0xFF	; 255
 1b6:	00 00       	nop
 1b8:	10 27       	eor	r17, r16
 1ba:	13 fb       	bst	r17, 3
 1bc:	20 f9       	bld	r18, 0
 1be:	10 b3       	in	r17, 0x10	; 16
 1c0:	1c 70       	andi	r17, 0x0C	; 12
 1c2:	c9 f1       	breq	.+114    	; 0x236 <se0>
 1c4:	29 7f       	andi	r18, 0xF9	; 249

000001c6 <didUnstuff0>:
 1c6:	91 f2       	breq	.-92     	; 0x16c <unstuff0>
 1c8:	01 27       	eor	r16, r17
 1ca:	03 fb       	bst	r16, 3
 1cc:	21 f9       	bld	r18, 1

000001ce <rxbit2>:
 1ce:	00 b3       	in	r16, 0x10	; 16
 1d0:	23 7f       	andi	r18, 0xF3	; 243
 1d2:	89 f2       	breq	.-94     	; 0x176 <unstuff1>

000001d4 <didUnstuff1>:
 1d4:	31 50       	subi	r19, 0x01	; 1
 1d6:	58 f1       	brcs	.+86     	; 0x22e <overflow>
 1d8:	10 27       	eor	r17, r16
 1da:	13 fb       	bst	r17, 3
 1dc:	22 f9       	bld	r18, 2
 1de:	10 b3       	in	r17, 0x10	; 16
 1e0:	27 7e       	andi	r18, 0xE7	; 231
 1e2:	79 f2       	breq	.-98     	; 0x182 <unstuff2>

000001e4 <didUnstuff2>:
 1e4:	01 27       	eor	r16, r17
 1e6:	03 fb       	bst	r16, 3
 1e8:	23 f9       	bld	r18, 3

000001ea <didUnstuff3>:
 1ea:	2f 7c       	andi	r18, 0xCF	; 207
 1ec:	81 f2       	breq	.-96     	; 0x18e <unstuff3>
 1ee:	00 b3       	in	r16, 0x10	; 16
 1f0:	10 27       	eor	r17, r16
 1f2:	13 fb       	bst	r17, 3
 1f4:	24 f9       	bld	r18, 4

000001f6 <didUnstuff4>:
 1f6:	2f 79       	andi	r18, 0x9F	; 159
 1f8:	71 f2       	breq	.-100    	; 0x196 <unstuff4>
 1fa:	00 c0       	rjmp	.+0      	; 0x1fc <didUnstuff4+0x6>
 1fc:	10 b3       	in	r17, 0x10	; 16
 1fe:	01 27       	eor	r16, r17
 200:	03 fb       	bst	r16, 3
 202:	25 f9       	bld	r18, 5

00000204 <didUnstuff5>:
 204:	2f 73       	andi	r18, 0x3F	; 63
 206:	59 f2       	breq	.-106    	; 0x19e <unstuff5>
 208:	00 c0       	rjmp	.+0      	; 0x20a <didUnstuff5+0x6>
 20a:	00 b3       	in	r16, 0x10	; 16
 20c:	10 27       	eor	r17, r16
 20e:	13 fb       	bst	r17, 3
 210:	26 f9       	bld	r18, 6

00000212 <didUnstuff6>:
 212:	22 30       	cpi	r18, 0x02	; 2
 214:	40 f2       	brcs	.-112    	; 0x1a6 <unstuff6>
 216:	00 c0       	rjmp	.+0      	; 0x218 <didUnstuff6+0x6>
 218:	10 b3       	in	r17, 0x10	; 16
 21a:	01 27       	eor	r16, r17
 21c:	03 fb       	bst	r16, 3
 21e:	27 f9       	bld	r18, 7

00000220 <didUnstuff7>:
 220:	24 30       	cpi	r18, 0x04	; 4
 222:	28 f6       	brcc	.-118    	; 0x1ae <rxLoop>

00000224 <unstuff7>:
 224:	4f 77       	andi	r20, 0x7F	; 127
 226:	20 68       	ori	r18, 0x80	; 128
 228:	10 b3       	in	r17, 0x10	; 16
 22a:	00 00       	nop
 22c:	f9 cf       	rjmp	.-14     	; 0x220 <didUnstuff7>

0000022e <overflow>:
 22e:	10 e4       	ldi	r17, 0x40	; 64
 230:	1a bf       	out	0x3a, r17	; 58

00000232 <ignorePacket>:
 232:	00 27       	eor	r16, r16
 234:	1c c0       	rjmp	.+56     	; 0x26e <storeTokenAndReturn>

00000236 <se0>:
 236:	3b 50       	subi	r19, 0x0B	; 11
 238:	31 95       	neg	r19
 23a:	c3 1b       	sub	r28, r19
 23c:	d0 40       	sbci	r29, 0x00	; 0
 23e:	10 e4       	ldi	r17, 0x40	; 64
 240:	1a bf       	out	0x3a, r17	; 58
 242:	08 81       	ld	r16, Y
 244:	03 3c       	cpi	r16, 0xC3	; 195
 246:	11 f1       	breq	.+68     	; 0x28c <handleData>
 248:	0b 34       	cpi	r16, 0x4B	; 75
 24a:	01 f1       	breq	.+64     	; 0x28c <handleData>
 24c:	20 91 8b 00 	lds	r18, 0x008B
 250:	19 81       	ldd	r17, Y+1	; 0x01
 252:	11 0f       	add	r17, r17
 254:	12 13       	cpse	r17, r18
 256:	ed cf       	rjmp	.-38     	; 0x232 <ignorePacket>
 258:	4a 81       	ldd	r20, Y+2	; 0x02
 25a:	44 1f       	adc	r20, r20
 25c:	09 36       	cpi	r16, 0x69	; 105
 25e:	59 f1       	breq	.+86     	; 0x2b6 <handleIn>
 260:	0d 32       	cpi	r16, 0x2D	; 45
 262:	11 f0       	breq	.+4      	; 0x268 <handleSetupOrOut>
 264:	01 3e       	cpi	r16, 0xE1	; 225
 266:	29 f7       	brne	.-54     	; 0x232 <ignorePacket>

00000268 <handleSetupOrOut>:
 268:	4f 70       	andi	r20, 0x0F	; 15
 26a:	09 f0       	breq	.+2      	; 0x26e <storeTokenAndReturn>
 26c:	04 2f       	mov	r16, r20

0000026e <storeTokenAndReturn>:
 26e:	00 93 92 00 	sts	0x0092, r16

00000272 <doReturn>:
 272:	3f 91       	pop	r19
 274:	4f 91       	pop	r20
 276:	1f 91       	pop	r17
 278:	0f 91       	pop	r16
 27a:	2f 91       	pop	r18
 27c:	df 91       	pop	r29
 27e:	ca b7       	in	r28, 0x3a	; 58
 280:	c6 fd       	sbrc	r28, 6
 282:	4c cf       	rjmp	.-360    	; 0x11c <waitForJ>

00000284 <sofError>:
 284:	cf 91       	pop	r28
 286:	cf bf       	out	0x3f, r28	; 63
 288:	cf 91       	pop	r28
 28a:	18 95       	reti

0000028c <handleData>:
 28c:	20 91 92 00 	lds	r18, 0x0092
 290:	22 23       	and	r18, r18
 292:	79 f3       	breq	.-34     	; 0x272 <doReturn>
 294:	10 91 90 00 	lds	r17, 0x0090
 298:	11 23       	and	r17, r17
 29a:	c1 f5       	brne	.+112    	; 0x30c <sendNakAndReti>
 29c:	34 30       	cpi	r19, 0x04	; 4
 29e:	c2 f1       	brmi	.+112    	; 0x310 <sendAckAndReti>
 2a0:	30 93 90 00 	sts	0x0090, r19
 2a4:	20 93 8c 00 	sts	0x008C, r18
 2a8:	10 91 8d 00 	lds	r17, 0x008D
 2ac:	3b e0       	ldi	r19, 0x0B	; 11
 2ae:	31 1b       	sub	r19, r17
 2b0:	30 93 8d 00 	sts	0x008D, r19
 2b4:	2d c0       	rjmp	.+90     	; 0x310 <sendAckAndReti>

000002b6 <handleIn>:
 2b6:	00 91 90 00 	lds	r16, 0x0090
 2ba:	01 30       	cpi	r16, 0x01	; 1
 2bc:	3c f5       	brge	.+78     	; 0x30c <sendNakAndReti>
 2be:	0a e5       	ldi	r16, 0x5A	; 90
 2c0:	4f 70       	andi	r20, 0x0F	; 15
 2c2:	49 f4       	brne	.+18     	; 0x2d6 <handleIn1>
 2c4:	30 91 61 00 	lds	r19, 0x0061
 2c8:	34 fd       	sbrc	r19, 4
 2ca:	24 c0       	rjmp	.+72     	; 0x314 <sendCntAndReti>
 2cc:	00 93 61 00 	sts	0x0061, r16
 2d0:	c4 e7       	ldi	r28, 0x74	; 116
 2d2:	d0 e0       	ldi	r29, 0x00	; 0
 2d4:	23 c0       	rjmp	.+70     	; 0x31c <usbSendAndReti>

000002d6 <handleIn1>:
 2d6:	43 30       	cpi	r20, 0x03	; 3
 2d8:	49 f0       	breq	.+18     	; 0x2ec <handleIn3>
 2da:	30 91 7f 00 	lds	r19, 0x007F
 2de:	34 fd       	sbrc	r19, 4
 2e0:	19 c0       	rjmp	.+50     	; 0x314 <sendCntAndReti>
 2e2:	00 93 7f 00 	sts	0x007F, r16
 2e6:	c0 e8       	ldi	r28, 0x80	; 128
 2e8:	d0 e0       	ldi	r29, 0x00	; 0
 2ea:	18 c0       	rjmp	.+48     	; 0x31c <usbSendAndReti>

000002ec <handleIn3>:
 2ec:	30 91 aa 00 	lds	r19, 0x00AA
 2f0:	34 fd       	sbrc	r19, 4
 2f2:	10 c0       	rjmp	.+32     	; 0x314 <sendCntAndReti>
 2f4:	00 93 aa 00 	sts	0x00AA, r16
 2f8:	cb ea       	ldi	r28, 0xAB	; 171
 2fa:	d0 e0       	ldi	r29, 0x00	; 0
 2fc:	0f c0       	rjmp	.+30     	; 0x31c <usbSendAndReti>

000002fe <stuffN1Delay>:
 2fe:	27 95       	ror	r18
 300:	a8 f4       	brcc	.+42     	; 0x32c <doExorN1>
 302:	51 50       	subi	r21, 0x01	; 1
 304:	a9 f4       	brne	.+42     	; 0x330 <commonN1>
 306:	22 0f       	add	r18, r18
 308:	00 00       	nop
 30a:	f9 cf       	rjmp	.-14     	; 0x2fe <stuffN1Delay>

0000030c <sendNakAndReti>:
 30c:	4a e5       	ldi	r20, 0x5A	; 90
 30e:	03 c0       	rjmp	.+6      	; 0x316 <usbSendX3>

00000310 <sendAckAndReti>:
 310:	42 ed       	ldi	r20, 0xD2	; 210
 312:	01 c0       	rjmp	.+2      	; 0x316 <usbSendX3>

00000314 <sendCntAndReti>:
 314:	43 2f       	mov	r20, r19

00000316 <usbSendX3>:
 316:	c4 e1       	ldi	r28, 0x14	; 20
 318:	d0 e0       	ldi	r29, 0x00	; 0
 31a:	32 e0       	ldi	r19, 0x02	; 2

0000031c <usbSendAndReti>:
 31c:	11 b3       	in	r17, 0x11	; 17
 31e:	1c 60       	ori	r17, 0x0C	; 12
 320:	93 9a       	sbi	0x12, 3	; 18
 322:	11 bb       	out	0x11, r17	; 17
 324:	02 b3       	in	r16, 0x12	; 18
 326:	20 e4       	ldi	r18, 0x40	; 64
 328:	1c e0       	ldi	r17, 0x0C	; 12
 32a:	5f 93       	push	r21

0000032c <doExorN1>:
 32c:	01 27       	eor	r16, r17
 32e:	56 e0       	ldi	r21, 0x06	; 6

00000330 <commonN1>:
 330:	02 bb       	out	0x12, r16	; 18
 332:	27 95       	ror	r18
 334:	20 f4       	brcc	.+8      	; 0x33e <doExorN2>
 336:	51 50       	subi	r21, 0x01	; 1
 338:	21 f4       	brne	.+8      	; 0x342 <commonN2>
 33a:	22 0f       	add	r18, r18
 33c:	f9 cf       	rjmp	.-14     	; 0x330 <commonN1>

0000033e <doExorN2>:
 33e:	01 27       	eor	r16, r17
 340:	56 e0       	ldi	r21, 0x06	; 6

00000342 <commonN2>:
 342:	00 00       	nop
 344:	3b 5a       	subi	r19, 0xAB	; 171
 346:	02 bb       	out	0x12, r16	; 18
 348:	d0 f2       	brcs	.-76     	; 0x2fe <stuffN1Delay>

0000034a <stuff6Delay>:
 34a:	27 95       	ror	r18
 34c:	28 f4       	brcc	.+10     	; 0x358 <doExor6>
 34e:	51 50       	subi	r21, 0x01	; 1
 350:	29 f4       	brne	.+10     	; 0x35c <common6>
 352:	22 0f       	add	r18, r18
 354:	00 00       	nop
 356:	f9 cf       	rjmp	.-14     	; 0x34a <stuff6Delay>

00000358 <doExor6>:
 358:	01 27       	eor	r16, r17
 35a:	56 e0       	ldi	r21, 0x06	; 6

0000035c <common6>:
 35c:	27 95       	ror	r18
 35e:	02 bb       	out	0x12, r16	; 18
 360:	20 f4       	brcc	.+8      	; 0x36a <doExor7>
 362:	51 50       	subi	r21, 0x01	; 1
 364:	21 f4       	brne	.+8      	; 0x36e <common7>
 366:	22 0f       	add	r18, r18
 368:	f9 cf       	rjmp	.-14     	; 0x35c <common6>

0000036a <doExor7>:
 36a:	01 27       	eor	r16, r17
 36c:	56 e0       	ldi	r21, 0x06	; 6

0000036e <common7>:
 36e:	29 91       	ld	r18, Y+
 370:	33 23       	and	r19, r19
 372:	02 bb       	out	0x12, r16	; 18
 374:	21 f6       	brne	.-120    	; 0x2fe <stuffN1Delay>
 376:	03 7f       	andi	r16, 0xF3	; 243
 378:	10 91 91 00 	lds	r17, 0x0091
 37c:	11 0f       	add	r17, r17
 37e:	c6 51       	subi	r28, 0x16	; 22
 380:	d0 40       	sbci	r29, 0x00	; 0
 382:	02 bb       	out	0x12, r16	; 18
 384:	11 f0       	breq	.+4      	; 0x38a <skipAddrAssign>
 386:	10 93 8b 00 	sts	0x008B, r17

0000038a <skipAddrAssign>:
 38a:	10 e4       	ldi	r17, 0x40	; 64
 38c:	1a bf       	out	0x3a, r17	; 58
 38e:	08 60       	ori	r16, 0x08	; 8
 390:	11 b3       	in	r17, 0x11	; 17
 392:	13 7f       	andi	r17, 0xF3	; 243
 394:	40 2f       	mov	r20, r16
 396:	43 7f       	andi	r20, 0xF3	; 243
 398:	5f 91       	pop	r21
 39a:	00 c0       	rjmp	.+0      	; 0x39c <skipAddrAssign+0x12>
 39c:	00 c0       	rjmp	.+0      	; 0x39e <skipAddrAssign+0x14>
 39e:	02 bb       	out	0x12, r16	; 18
 3a0:	11 bb       	out	0x11, r17	; 17
 3a2:	42 bb       	out	0x12, r20	; 18
 3a4:	66 cf       	rjmp	.-308    	; 0x272 <doReturn>

000003a6 <usbGenericSetInterrupt>:
 3a6:	1f 93       	push	r17
 3a8:	cf 93       	push	r28
 3aa:	df 93       	push	r29
 3ac:	16 2f       	mov	r17, r22
 3ae:	ea 01       	movw	r28, r20
 3b0:	28 81       	ld	r18, Y
 3b2:	24 ff       	sbrs	r18, 4
 3b4:	05 c0       	rjmp	.+10     	; 0x3c0 <usbGenericSetInterrupt+0x1a>
 3b6:	39 81       	ldd	r19, Y+1	; 0x01
 3b8:	28 e8       	ldi	r18, 0x88	; 136
 3ba:	23 27       	eor	r18, r19
 3bc:	29 83       	std	Y+1, r18	; 0x01
 3be:	02 c0       	rjmp	.+4      	; 0x3c4 <usbGenericSetInterrupt+0x1e>
 3c0:	2a e5       	ldi	r18, 0x5A	; 90
 3c2:	28 83       	st	Y, r18
 3c4:	fc 01       	movw	r30, r24
 3c6:	ce 01       	movw	r24, r28
 3c8:	02 96       	adiw	r24, 0x02	; 2
 3ca:	dc 01       	movw	r26, r24
 3cc:	21 2f       	mov	r18, r17
 3ce:	28 0f       	add	r18, r24
 3d0:	31 91       	ld	r19, Z+
 3d2:	3d 93       	st	X+, r19
 3d4:	2a 13       	cpse	r18, r26
 3d6:	fc cf       	rjmp	.-8      	; 0x3d0 <usbGenericSetInterrupt+0x2a>
 3d8:	61 2f       	mov	r22, r17
 3da:	99 de       	rcall	.-718    	; 0x10e <usbCrc16Append>
 3dc:	1c 5f       	subi	r17, 0xFC	; 252
 3de:	18 83       	st	Y, r17
 3e0:	df 91       	pop	r29
 3e2:	cf 91       	pop	r28
 3e4:	1f 91       	pop	r17
 3e6:	08 95       	ret

000003e8 <usbSetInterrupt>:
 3e8:	4f e7       	ldi	r20, 0x7F	; 127
 3ea:	50 e0       	ldi	r21, 0x00	; 0
 3ec:	dc cf       	rjmp	.-72     	; 0x3a6 <usbGenericSetInterrupt>

000003ee <usbSetInterrupt3>:
 3ee:	4a ea       	ldi	r20, 0xAA	; 170
 3f0:	50 e0       	ldi	r21, 0x00	; 0
 3f2:	d9 cf       	rjmp	.-78     	; 0x3a6 <usbGenericSetInterrupt>

000003f4 <usbPoll>:
 3f4:	cf 93       	push	r28
 3f6:	df 93       	push	r29
 3f8:	60 91 90 00 	lds	r22, 0x0090
 3fc:	63 50       	subi	r22, 0x03	; 3
 3fe:	67 fd       	sbrc	r22, 7
 400:	b5 c0       	rjmp	.+362    	; 0x56c <usbPoll+0x178>
 402:	80 91 8d 00 	lds	r24, 0x008D
 406:	cc e0       	ldi	r28, 0x0C	; 12
 408:	d0 e0       	ldi	r29, 0x00	; 0
 40a:	c8 1b       	sub	r28, r24
 40c:	d1 09       	sbc	r29, r1
 40e:	cc 56       	subi	r28, 0x6C	; 108
 410:	df 4f       	sbci	r29, 0xFF	; 255
 412:	80 91 8c 00 	lds	r24, 0x008C
 416:	80 31       	cpi	r24, 0x10	; 16
 418:	18 f4       	brcc	.+6      	; 0x420 <usbPoll+0x2c>
 41a:	ce 01       	movw	r24, r28
 41c:	5b d1       	rcall	.+694    	; 0x6d4 <usbFunctionWriteOut>
 41e:	a0 c0       	rjmp	.+320    	; 0x560 <usbPoll+0x16c>
 420:	8d 32       	cpi	r24, 0x2D	; 45
 422:	09 f0       	breq	.+2      	; 0x426 <usbPoll+0x32>
 424:	8e c0       	rjmp	.+284    	; 0x542 <usbPoll+0x14e>
 426:	68 30       	cpi	r22, 0x08	; 8
 428:	09 f0       	breq	.+2      	; 0x42c <usbPoll+0x38>
 42a:	9a c0       	rjmp	.+308    	; 0x560 <usbPoll+0x16c>
 42c:	83 ec       	ldi	r24, 0xC3	; 195
 42e:	80 93 74 00 	sts	0x0074, r24
 432:	8a e5       	ldi	r24, 0x5A	; 90
 434:	80 93 61 00 	sts	0x0061, r24
 438:	10 92 62 00 	sts	0x0062, r1
 43c:	88 81       	ld	r24, Y
 43e:	80 76       	andi	r24, 0x60	; 96
 440:	21 f0       	breq	.+8      	; 0x44a <usbPoll+0x56>
 442:	ce 01       	movw	r24, r28
 444:	1d d1       	rcall	.+570    	; 0x680 <usbFunctionSetup>
 446:	98 2f       	mov	r25, r24
 448:	69 c0       	rjmp	.+210    	; 0x51c <usbPoll+0x128>
 44a:	9a 81       	ldd	r25, Y+2	; 0x02
 44c:	10 92 7d 00 	sts	0x007D, r1
 450:	89 81       	ldd	r24, Y+1	; 0x01
 452:	81 11       	cpse	r24, r1
 454:	06 c0       	rjmp	.+12     	; 0x462 <usbPoll+0x6e>
 456:	10 92 7e 00 	sts	0x007E, r1
 45a:	2d e7       	ldi	r18, 0x7D	; 125
 45c:	30 e0       	ldi	r19, 0x00	; 0
 45e:	92 e0       	ldi	r25, 0x02	; 2
 460:	58 c0       	rjmp	.+176    	; 0x512 <usbPoll+0x11e>
 462:	85 30       	cpi	r24, 0x05	; 5
 464:	19 f4       	brne	.+6      	; 0x46c <usbPoll+0x78>
 466:	90 93 91 00 	sts	0x0091, r25
 46a:	50 c0       	rjmp	.+160    	; 0x50c <usbPoll+0x118>
 46c:	86 30       	cpi	r24, 0x06	; 6
 46e:	b1 f5       	brne	.+108    	; 0x4dc <usbPoll+0xe8>
 470:	8b 81       	ldd	r24, Y+3	; 0x03
 472:	81 30       	cpi	r24, 0x01	; 1
 474:	41 f4       	brne	.+16     	; 0x486 <usbPoll+0x92>
 476:	86 e2       	ldi	r24, 0x26	; 38
 478:	90 e0       	ldi	r25, 0x00	; 0
 47a:	90 93 8f 00 	sts	0x008F, r25
 47e:	80 93 8e 00 	sts	0x008E, r24
 482:	92 e1       	ldi	r25, 0x12	; 18
 484:	27 c0       	rjmp	.+78     	; 0x4d4 <usbPoll+0xe0>
 486:	82 30       	cpi	r24, 0x02	; 2
 488:	21 f4       	brne	.+8      	; 0x492 <usbPoll+0x9e>
 48a:	ce 01       	movw	r24, r28
 48c:	e4 d0       	rcall	.+456    	; 0x656 <usbFunctionDescriptor>
 48e:	98 2f       	mov	r25, r24
 490:	21 c0       	rjmp	.+66     	; 0x4d4 <usbPoll+0xe0>
 492:	83 30       	cpi	r24, 0x03	; 3
 494:	f1 f4       	brne	.+60     	; 0x4d2 <usbPoll+0xde>
 496:	91 11       	cpse	r25, r1
 498:	08 c0       	rjmp	.+16     	; 0x4aa <usbPoll+0xb6>
 49a:	88 e6       	ldi	r24, 0x68	; 104
 49c:	90 e0       	ldi	r25, 0x00	; 0
 49e:	90 93 8f 00 	sts	0x008F, r25
 4a2:	80 93 8e 00 	sts	0x008E, r24
 4a6:	94 e0       	ldi	r25, 0x04	; 4
 4a8:	15 c0       	rjmp	.+42     	; 0x4d4 <usbPoll+0xe0>
 4aa:	91 30       	cpi	r25, 0x01	; 1
 4ac:	41 f4       	brne	.+16     	; 0x4be <usbPoll+0xca>
 4ae:	88 e4       	ldi	r24, 0x48	; 72
 4b0:	90 e0       	ldi	r25, 0x00	; 0
 4b2:	90 93 8f 00 	sts	0x008F, r25
 4b6:	80 93 8e 00 	sts	0x008E, r24
 4ba:	90 e2       	ldi	r25, 0x20	; 32
 4bc:	0b c0       	rjmp	.+22     	; 0x4d4 <usbPoll+0xe0>
 4be:	92 30       	cpi	r25, 0x02	; 2
 4c0:	41 f4       	brne	.+16     	; 0x4d2 <usbPoll+0xde>
 4c2:	88 e3       	ldi	r24, 0x38	; 56
 4c4:	90 e0       	ldi	r25, 0x00	; 0
 4c6:	90 93 8f 00 	sts	0x008F, r25
 4ca:	80 93 8e 00 	sts	0x008E, r24
 4ce:	90 e1       	ldi	r25, 0x10	; 16
 4d0:	01 c0       	rjmp	.+2      	; 0x4d4 <usbPoll+0xe0>
 4d2:	90 e0       	ldi	r25, 0x00	; 0
 4d4:	80 e4       	ldi	r24, 0x40	; 64
 4d6:	80 93 62 00 	sts	0x0062, r24
 4da:	20 c0       	rjmp	.+64     	; 0x51c <usbPoll+0x128>
 4dc:	88 30       	cpi	r24, 0x08	; 8
 4de:	79 f0       	breq	.+30     	; 0x4fe <usbPoll+0x10a>
 4e0:	89 30       	cpi	r24, 0x09	; 9
 4e2:	19 f4       	brne	.+6      	; 0x4ea <usbPoll+0xf6>
 4e4:	90 93 93 00 	sts	0x0093, r25
 4e8:	11 c0       	rjmp	.+34     	; 0x50c <usbPoll+0x118>
 4ea:	8a 30       	cpi	r24, 0x0A	; 10
 4ec:	59 f0       	breq	.+22     	; 0x504 <usbPoll+0x110>
 4ee:	8b 30       	cpi	r24, 0x0B	; 11
 4f0:	69 f4       	brne	.+26     	; 0x50c <usbPoll+0x118>
 4f2:	8b e4       	ldi	r24, 0x4B	; 75
 4f4:	80 93 80 00 	sts	0x0080, r24
 4f8:	80 93 ab 00 	sts	0x00AB, r24
 4fc:	07 c0       	rjmp	.+14     	; 0x50c <usbPoll+0x118>
 4fe:	23 e9       	ldi	r18, 0x93	; 147
 500:	30 e0       	ldi	r19, 0x00	; 0
 502:	02 c0       	rjmp	.+4      	; 0x508 <usbPoll+0x114>
 504:	2d e7       	ldi	r18, 0x7D	; 125
 506:	30 e0       	ldi	r19, 0x00	; 0
 508:	91 e0       	ldi	r25, 0x01	; 1
 50a:	03 c0       	rjmp	.+6      	; 0x512 <usbPoll+0x11e>
 50c:	2d e7       	ldi	r18, 0x7D	; 125
 50e:	30 e0       	ldi	r19, 0x00	; 0
 510:	90 e0       	ldi	r25, 0x00	; 0
 512:	30 93 8f 00 	sts	0x008F, r19
 516:	20 93 8e 00 	sts	0x008E, r18
 51a:	09 c0       	rjmp	.+18     	; 0x52e <usbPoll+0x13a>
 51c:	9f 3f       	cpi	r25, 0xFF	; 255
 51e:	39 f4       	brne	.+14     	; 0x52e <usbPoll+0x13a>
 520:	88 81       	ld	r24, Y
 522:	87 fd       	sbrc	r24, 7
 524:	9e 81       	ldd	r25, Y+6	; 0x06
 526:	80 e8       	ldi	r24, 0x80	; 128
 528:	80 93 62 00 	sts	0x0062, r24
 52c:	07 c0       	rjmp	.+14     	; 0x53c <usbPoll+0x148>
 52e:	8f 81       	ldd	r24, Y+7	; 0x07
 530:	81 11       	cpse	r24, r1
 532:	04 c0       	rjmp	.+8      	; 0x53c <usbPoll+0x148>
 534:	8e 81       	ldd	r24, Y+6	; 0x06
 536:	89 17       	cp	r24, r25
 538:	08 f4       	brcc	.+2      	; 0x53c <usbPoll+0x148>
 53a:	98 2f       	mov	r25, r24
 53c:	90 93 60 00 	sts	0x0060, r25
 540:	0f c0       	rjmp	.+30     	; 0x560 <usbPoll+0x16c>
 542:	80 91 62 00 	lds	r24, 0x0062
 546:	87 ff       	sbrs	r24, 7
 548:	0b c0       	rjmp	.+22     	; 0x560 <usbPoll+0x16c>
 54a:	ce 01       	movw	r24, r28
 54c:	b2 d0       	rcall	.+356    	; 0x6b2 <usbFunctionWrite>
 54e:	8f 3f       	cpi	r24, 0xFF	; 255
 550:	21 f4       	brne	.+8      	; 0x55a <usbPoll+0x166>
 552:	8e e1       	ldi	r24, 0x1E	; 30
 554:	80 93 61 00 	sts	0x0061, r24
 558:	03 c0       	rjmp	.+6      	; 0x560 <usbPoll+0x16c>
 55a:	81 11       	cpse	r24, r1
 55c:	10 92 60 00 	sts	0x0060, r1
 560:	80 91 90 00 	lds	r24, 0x0090
 564:	18 16       	cp	r1, r24
 566:	14 f4       	brge	.+4      	; 0x56c <usbPoll+0x178>
 568:	10 92 90 00 	sts	0x0090, r1
 56c:	80 91 61 00 	lds	r24, 0x0061
 570:	84 ff       	sbrs	r24, 4
 572:	51 c0       	rjmp	.+162    	; 0x616 <usbPoll+0x222>
 574:	90 91 60 00 	lds	r25, 0x0060
 578:	9f 3f       	cpi	r25, 0xFF	; 255
 57a:	09 f4       	brne	.+2      	; 0x57e <usbPoll+0x18a>
 57c:	4c c0       	rjmp	.+152    	; 0x616 <usbPoll+0x222>
 57e:	c9 2f       	mov	r28, r25
 580:	99 30       	cpi	r25, 0x09	; 9
 582:	08 f0       	brcs	.+2      	; 0x586 <usbPoll+0x192>
 584:	c8 e0       	ldi	r28, 0x08	; 8
 586:	9c 1b       	sub	r25, r28
 588:	90 93 60 00 	sts	0x0060, r25
 58c:	80 91 74 00 	lds	r24, 0x0074
 590:	98 e8       	ldi	r25, 0x88	; 136
 592:	98 27       	eor	r25, r24
 594:	90 93 74 00 	sts	0x0074, r25
 598:	cc 23       	and	r28, r28
 59a:	59 f1       	breq	.+86     	; 0x5f2 <usbPoll+0x1fe>
 59c:	90 91 62 00 	lds	r25, 0x0062
 5a0:	97 ff       	sbrs	r25, 7
 5a2:	08 c0       	rjmp	.+16     	; 0x5b4 <usbPoll+0x1c0>
 5a4:	6c 2f       	mov	r22, r28
 5a6:	85 e7       	ldi	r24, 0x75	; 117
 5a8:	90 e0       	ldi	r25, 0x00	; 0
 5aa:	79 d0       	rcall	.+242    	; 0x69e <usbFunctionRead>
 5ac:	c8 2f       	mov	r28, r24
 5ae:	89 30       	cpi	r24, 0x09	; 9
 5b0:	60 f5       	brcc	.+88     	; 0x60a <usbPoll+0x216>
 5b2:	1f c0       	rjmp	.+62     	; 0x5f2 <usbPoll+0x1fe>
 5b4:	20 91 8e 00 	lds	r18, 0x008E
 5b8:	30 91 8f 00 	lds	r19, 0x008F
 5bc:	8c 2f       	mov	r24, r28
 5be:	82 0f       	add	r24, r18
 5c0:	a5 e7       	ldi	r26, 0x75	; 117
 5c2:	b0 e0       	ldi	r27, 0x00	; 0
 5c4:	f9 01       	movw	r30, r18
 5c6:	96 ff       	sbrs	r25, 6
 5c8:	06 c0       	rjmp	.+12     	; 0x5d6 <usbPoll+0x1e2>
 5ca:	94 91       	lpm	r25, Z
 5cc:	9d 93       	st	X+, r25
 5ce:	31 96       	adiw	r30, 0x01	; 1
 5d0:	8e 13       	cpse	r24, r30
 5d2:	fb cf       	rjmp	.-10     	; 0x5ca <usbPoll+0x1d6>
 5d4:	04 c0       	rjmp	.+8      	; 0x5de <usbPoll+0x1ea>
 5d6:	91 91       	ld	r25, Z+
 5d8:	9d 93       	st	X+, r25
 5da:	8e 13       	cpse	r24, r30
 5dc:	fc cf       	rjmp	.-8      	; 0x5d6 <usbPoll+0x1e2>
 5de:	2f 5f       	subi	r18, 0xFF	; 255
 5e0:	3f 4f       	sbci	r19, 0xFF	; 255
 5e2:	8f ef       	ldi	r24, 0xFF	; 255
 5e4:	8c 0f       	add	r24, r28
 5e6:	28 0f       	add	r18, r24
 5e8:	31 1d       	adc	r19, r1
 5ea:	30 93 8f 00 	sts	0x008F, r19
 5ee:	20 93 8e 00 	sts	0x008E, r18
 5f2:	6c 2f       	mov	r22, r28
 5f4:	85 e7       	ldi	r24, 0x75	; 117
 5f6:	90 e0       	ldi	r25, 0x00	; 0
 5f8:	8a dd       	rcall	.-1260   	; 0x10e <usbCrc16Append>
 5fa:	64 e0       	ldi	r22, 0x04	; 4
 5fc:	6c 0f       	add	r22, r28
 5fe:	6c 30       	cpi	r22, 0x0C	; 12
 600:	41 f0       	breq	.+16     	; 0x612 <usbPoll+0x21e>
 602:	8f ef       	ldi	r24, 0xFF	; 255
 604:	80 93 60 00 	sts	0x0060, r24
 608:	04 c0       	rjmp	.+8      	; 0x612 <usbPoll+0x21e>
 60a:	8f ef       	ldi	r24, 0xFF	; 255
 60c:	80 93 60 00 	sts	0x0060, r24
 610:	6e e1       	ldi	r22, 0x1E	; 30
 612:	60 93 61 00 	sts	0x0061, r22
 616:	84 e1       	ldi	r24, 0x14	; 20
 618:	90 b3       	in	r25, 0x10	; 16
 61a:	9c 70       	andi	r25, 0x0C	; 12
 61c:	31 f4       	brne	.+12     	; 0x62a <usbPoll+0x236>
 61e:	81 50       	subi	r24, 0x01	; 1
 620:	d9 f7       	brne	.-10     	; 0x618 <usbPoll+0x224>
 622:	10 92 91 00 	sts	0x0091, r1
 626:	10 92 8b 00 	sts	0x008B, r1
 62a:	df 91       	pop	r29
 62c:	cf 91       	pop	r28
 62e:	08 95       	ret

00000630 <usbInit>:
 630:	85 b7       	in	r24, 0x35	; 53
 632:	82 60       	ori	r24, 0x02	; 2
 634:	85 bf       	out	0x35, r24	; 53
 636:	8b b7       	in	r24, 0x3b	; 59
 638:	80 64       	ori	r24, 0x40	; 64
 63a:	8b bf       	out	0x3b, r24	; 59
 63c:	af e7       	ldi	r26, 0x7F	; 127
 63e:	b0 e0       	ldi	r27, 0x00	; 0
 640:	8b e4       	ldi	r24, 0x4B	; 75
 642:	11 96       	adiw	r26, 0x01	; 1
 644:	8c 93       	st	X, r24
 646:	11 97       	sbiw	r26, 0x01	; 1
 648:	ea ea       	ldi	r30, 0xAA	; 170
 64a:	f0 e0       	ldi	r31, 0x00	; 0
 64c:	81 83       	std	Z+1, r24	; 0x01
 64e:	8a e5       	ldi	r24, 0x5A	; 90
 650:	8c 93       	st	X, r24
 652:	80 83       	st	Z, r24
 654:	08 95       	ret

00000656 <usbFunctionDescriptor>:
 656:	fc 01       	movw	r30, r24
 658:	83 81       	ldd	r24, Z+3	; 0x03
 65a:	81 30       	cpi	r24, 0x01	; 1
 65c:	49 f4       	brne	.+18     	; 0x670 <usbFunctionDescriptor+0x1a>
 65e:	86 e2       	ldi	r24, 0x26	; 38
 660:	90 e0       	ldi	r25, 0x00	; 0
 662:	90 93 8f 00 	sts	0x008F, r25
 666:	80 93 8e 00 	sts	0x008E, r24
 66a:	80 91 26 00 	lds	r24, 0x0026
 66e:	08 95       	ret
 670:	8c e6       	ldi	r24, 0x6C	; 108
 672:	90 e0       	ldi	r25, 0x00	; 0
 674:	90 93 8f 00 	sts	0x008F, r25
 678:	80 93 8e 00 	sts	0x008E, r24
 67c:	83 e4       	ldi	r24, 0x43	; 67
 67e:	08 95       	ret

00000680 <usbFunctionSetup>:
 680:	fc 01       	movw	r30, r24
 682:	90 81       	ld	r25, Z
 684:	90 76       	andi	r25, 0x60	; 96
 686:	90 32       	cpi	r25, 0x20	; 32
 688:	41 f4       	brne	.+16     	; 0x69a <usbFunctionSetup+0x1a>
 68a:	91 81       	ldd	r25, Z+1	; 0x01
 68c:	90 52       	subi	r25, 0x20	; 32
 68e:	81 e0       	ldi	r24, 0x01	; 1
 690:	92 30       	cpi	r25, 0x02	; 2
 692:	08 f0       	brcs	.+2      	; 0x696 <usbFunctionSetup+0x16>
 694:	80 e0       	ldi	r24, 0x00	; 0
 696:	81 95       	neg	r24
 698:	08 95       	ret
 69a:	80 e0       	ldi	r24, 0x00	; 0
 69c:	08 95       	ret

0000069e <usbFunctionRead>:
 69e:	dc 01       	movw	r26, r24
 6a0:	97 e0       	ldi	r25, 0x07	; 7
 6a2:	e3 e6       	ldi	r30, 0x63	; 99
 6a4:	f0 e0       	ldi	r31, 0x00	; 0
 6a6:	01 90       	ld	r0, Z+
 6a8:	0d 92       	st	X+, r0
 6aa:	9a 95       	dec	r25
 6ac:	e1 f7       	brne	.-8      	; 0x6a6 <usbFunctionRead+0x8>
 6ae:	87 e0       	ldi	r24, 0x07	; 7
 6b0:	08 95       	ret

000006b2 <usbFunctionWrite>:
 6b2:	fc 01       	movw	r30, r24
 6b4:	8d e4       	ldi	r24, 0x4D	; 77
 6b6:	89 b9       	out	0x09, r24	; 9
 6b8:	12 b8       	out	0x02, r1	; 2
 6ba:	82 e0       	ldi	r24, 0x02	; 2
 6bc:	8b b9       	out	0x0b, r24	; 11
 6be:	88 e1       	ldi	r24, 0x18	; 24
 6c0:	8a b9       	out	0x0a, r24	; 10
 6c2:	97 e0       	ldi	r25, 0x07	; 7
 6c4:	a3 e6       	ldi	r26, 0x63	; 99
 6c6:	b0 e0       	ldi	r27, 0x00	; 0
 6c8:	01 90       	ld	r0, Z+
 6ca:	0d 92       	st	X+, r0
 6cc:	9a 95       	dec	r25
 6ce:	e1 f7       	brne	.-8      	; 0x6c8 <usbFunctionWrite+0x16>
 6d0:	81 e0       	ldi	r24, 0x01	; 1
 6d2:	08 95       	ret

000006d4 <usbFunctionWriteOut>:
 6d4:	fc 01       	movw	r30, r24
 6d6:	10 92 6c 00 	sts	0x006C, r1
 6da:	81 e0       	ldi	r24, 0x01	; 1
 6dc:	80 93 6a 00 	sts	0x006A, r24
 6e0:	8f ef       	ldi	r24, 0xFF	; 255
 6e2:	80 93 90 00 	sts	0x0090, r24
 6e6:	63 30       	cpi	r22, 0x03	; 3
 6e8:	50 f1       	brcs	.+84     	; 0x73e <usbFunctionWriteOut+0x6a>
 6ea:	82 81       	ldd	r24, Z+2	; 0x02
 6ec:	90 81       	ld	r25, Z
 6ee:	9f 3f       	cpi	r25, 0xFF	; 255
 6f0:	c9 f4       	brne	.+50     	; 0x724 <usbFunctionWriteOut+0x50>
 6f2:	91 81       	ldd	r25, Z+1	; 0x01
 6f4:	9e 3f       	cpi	r25, 0xFE	; 254
 6f6:	19 f1       	breq	.+70     	; 0x73e <usbFunctionWriteOut+0x6a>
 6f8:	82 30       	cpi	r24, 0x02	; 2
 6fa:	20 f4       	brcc	.+8      	; 0x704 <usbFunctionWriteOut+0x30>
 6fc:	67 30       	cpi	r22, 0x07	; 7
 6fe:	f8 f0       	brcs	.+62     	; 0x73e <usbFunctionWriteOut+0x6a>
 700:	97 e0       	ldi	r25, 0x07	; 7
 702:	03 c0       	rjmp	.+6      	; 0x70a <usbFunctionWriteOut+0x36>
 704:	82 30       	cpi	r24, 0x02	; 2
 706:	d9 f4       	brne	.+54     	; 0x73e <usbFunctionWriteOut+0x6a>
 708:	93 e0       	ldi	r25, 0x03	; 3
 70a:	32 96       	adiw	r30, 0x02	; 2
 70c:	82 e0       	ldi	r24, 0x02	; 2
 70e:	5d 9b       	sbis	0x0b, 5	; 11
 710:	fe cf       	rjmp	.-4      	; 0x70e <usbFunctionWriteOut+0x3a>
 712:	21 91       	ld	r18, Z+
 714:	2c b9       	out	0x0c, r18	; 12
 716:	8f 5f       	subi	r24, 0xFF	; 255
 718:	89 13       	cpse	r24, r25
 71a:	f9 cf       	rjmp	.-14     	; 0x70e <usbFunctionWriteOut+0x3a>
 71c:	81 e0       	ldi	r24, 0x01	; 1
 71e:	80 93 6c 00 	sts	0x006C, r24
 722:	0d c0       	rjmp	.+26     	; 0x73e <usbFunctionWriteOut+0x6a>
 724:	98 36       	cpi	r25, 0x68	; 104
 726:	59 f4       	brne	.+22     	; 0x73e <usbFunctionWriteOut+0x6a>
 728:	91 81       	ldd	r25, Z+1	; 0x01
 72a:	95 36       	cpi	r25, 0x65	; 101
 72c:	41 f4       	brne	.+16     	; 0x73e <usbFunctionWriteOut+0x6a>
 72e:	8c 36       	cpi	r24, 0x6C	; 108
 730:	31 f4       	brne	.+12     	; 0x73e <usbFunctionWriteOut+0x6a>
 732:	83 81       	ldd	r24, Z+3	; 0x03
 734:	80 37       	cpi	r24, 0x70	; 112
 736:	19 f4       	brne	.+6      	; 0x73e <usbFunctionWriteOut+0x6a>
 738:	82 e0       	ldi	r24, 0x02	; 2
 73a:	80 93 6a 00 	sts	0x006A, r24
 73e:	10 92 90 00 	sts	0x0090, r1
 742:	08 95       	ret

00000744 <main>:
 744:	83 ef       	ldi	r24, 0xF3	; 243
 746:	82 bb       	out	0x12, r24	; 18
 748:	8c e0       	ldi	r24, 0x0C	; 12
 74a:	81 bb       	out	0x11, r24	; 17
 74c:	8f e0       	ldi	r24, 0x0F	; 15
 74e:	81 50       	subi	r24, 0x01	; 1
 750:	39 f0       	breq	.+14     	; 0x760 <main+0x1c>
 752:	20 e0       	ldi	r18, 0x00	; 0
 754:	30 e0       	ldi	r19, 0x00	; 0
 756:	21 50       	subi	r18, 0x01	; 1
 758:	31 09       	sbc	r19, r1
 75a:	c9 f3       	breq	.-14     	; 0x74e <main+0xa>
 75c:	a8 95       	wdr
 75e:	fb cf       	rjmp	.-10     	; 0x756 <main+0x12>
 760:	11 ba       	out	0x11, r1	; 17
 762:	8f ef       	ldi	r24, 0xFF	; 255
 764:	88 bb       	out	0x18, r24	; 24
 766:	64 df       	rcall	.-312    	; 0x630 <usbInit>
 768:	78 94       	sei
 76a:	a8 95       	wdr
 76c:	43 de       	rcall	.-890    	; 0x3f4 <usbPoll>
 76e:	80 91 7f 00 	lds	r24, 0x007F
 772:	84 ff       	sbrs	r24, 4
 774:	fa cf       	rjmp	.-12     	; 0x76a <main+0x26>
 776:	80 91 6a 00 	lds	r24, 0x006A
 77a:	81 30       	cpi	r24, 0x01	; 1
 77c:	29 f4       	brne	.+10     	; 0x788 <main+0x44>
 77e:	61 e0       	ldi	r22, 0x01	; 1
 780:	8c e6       	ldi	r24, 0x6C	; 108
 782:	90 e0       	ldi	r25, 0x00	; 0
 784:	31 de       	rcall	.-926    	; 0x3e8 <usbSetInterrupt>
 786:	1f c0       	rjmp	.+62     	; 0x7c6 <main+0x82>
 788:	82 30       	cpi	r24, 0x02	; 2
 78a:	79 f7       	brne	.-34     	; 0x76a <main+0x26>
 78c:	60 91 6b 00 	lds	r22, 0x006B
 790:	70 e0       	ldi	r23, 0x00	; 0
 792:	83 e0       	ldi	r24, 0x03	; 3
 794:	66 0f       	add	r22, r22
 796:	77 1f       	adc	r23, r23
 798:	8a 95       	dec	r24
 79a:	e1 f7       	brne	.-8      	; 0x794 <main+0x50>
 79c:	60 50       	subi	r22, 0x00	; 0
 79e:	70 40       	sbci	r23, 0x00	; 0
 7a0:	47 e0       	ldi	r20, 0x07	; 7
 7a2:	50 e0       	ldi	r21, 0x00	; 0
 7a4:	8c e6       	ldi	r24, 0x6C	; 108
 7a6:	90 e0       	ldi	r25, 0x00	; 0
 7a8:	11 d0       	rcall	.+34     	; 0x7cc <eeprom_read_block>
 7aa:	67 e0       	ldi	r22, 0x07	; 7
 7ac:	8c e6       	ldi	r24, 0x6C	; 108
 7ae:	90 e0       	ldi	r25, 0x00	; 0
 7b0:	1b de       	rcall	.-970    	; 0x3e8 <usbSetInterrupt>
 7b2:	80 91 6b 00 	lds	r24, 0x006B
 7b6:	8f 5f       	subi	r24, 0xFF	; 255
 7b8:	80 31       	cpi	r24, 0x10	; 16
 7ba:	18 f4       	brcc	.+6      	; 0x7c2 <main+0x7e>
 7bc:	80 93 6b 00 	sts	0x006B, r24
 7c0:	d4 cf       	rjmp	.-88     	; 0x76a <main+0x26>
 7c2:	10 92 6b 00 	sts	0x006B, r1
 7c6:	10 92 6a 00 	sts	0x006A, r1
 7ca:	cf cf       	rjmp	.-98     	; 0x76a <main+0x26>

000007cc <eeprom_read_block>:
 7cc:	a8 2f       	mov	r26, r24
 7ce:	86 2f       	mov	r24, r22

000007d0 <eeprom_read_blraw>:
 7d0:	e8 2f       	mov	r30, r24
 7d2:	e1 99       	sbic	0x1c, 1	; 28
 7d4:	fe cf       	rjmp	.-4      	; 0x7d2 <eeprom_read_blraw+0x2>
 7d6:	05 c0       	rjmp	.+10     	; 0x7e2 <eeprom_read_blraw+0x12>
 7d8:	ee bb       	out	0x1e, r30	; 30
 7da:	e0 9a       	sbi	0x1c, 0	; 28
 7dc:	e3 95       	inc	r30
 7de:	0d b2       	in	r0, 0x1d	; 29
 7e0:	0d 92       	st	X+, r0
 7e2:	41 50       	subi	r20, 0x01	; 1
 7e4:	c8 f7       	brcc	.-14     	; 0x7d8 <eeprom_read_blraw+0x8>
 7e6:	08 95       	ret

000007e8 <_exit>:
 7e8:	f8 94       	cli

000007ea <__stop_program>:
 7ea:	ff cf       	rjmp	.-2      	; 0x7ea <__stop_program>
